target datalayout = "e-m:e-p270:32:32-p271:32:32-p272:64:64-i64:64-i128:128-f80:128-n8:16:32:64-S128"
target triple = "x86_64-pc-linux-gnu"

%struct.timeval = type { i64, i64 }
%struct.group = type { ptr, ptr, i32, ptr }

@.str = private unnamed_addr constant [6 x i8] c"uid.c\00", align 1
@.str.16 = private unnamed_addr constant [11 x i8] c"getgrgid_r\00", align 1
@__func__.gid_to_string_or_null = private unnamed_addr constant [22 x i8] c"gid_to_string_or_null\00", align 1
@.str.17 = private unnamed_addr constant [36 x i8] c"%s: getgrgid_r(%d): no record found\00", align 1
@.str.18 = private unnamed_addr constant [23 x i8] c"%s: getgrgid_r(%d): %s\00", align 1

; Function Attrs: nounwind uwtable
define dso_local ptr @gid_to_string_or_null(i32 noundef %0) #0 {
  %2 = alloca i32, align 4
  %3 = alloca %struct.timeval, align 8
  %4 = alloca %struct.timeval, align 8
  %5 = alloca [20 x i8], align 16
  %6 = alloca i64, align 8
  %7 = alloca %struct.group, align 8
  %8 = alloca ptr, align 8
  %9 = alloca [65536 x i8], align 16
  %10 = alloca ptr, align 8
  %11 = alloca i64, align 8
  %12 = alloca ptr, align 8
  %13 = alloca ptr, align 8
  %14 = alloca i32, align 4
  %15 = alloca i32, align 4
  store i32 %0, ptr %2, align 4
  call void @llvm.lifetime.start.p0(i64 16, ptr %3) #9
  call void @llvm.lifetime.start.p0(i64 16, ptr %4) #9
  call void @llvm.lifetime.start.p0(i64 20, ptr %5) #9
  call void @llvm.memset.p0.i64(ptr align 16 %5, i8 0, i64 20, i1 false)
  call void @llvm.lifetime.start.p0(i64 8, ptr %6) #9
  call void @llvm.lifetime.start.p0(i64 32, ptr %7) #9
  call void @llvm.lifetime.start.p0(i64 8, ptr %8) #9
  store ptr null, ptr %8, align 8
  call void @llvm.lifetime.start.p0(i64 65536, ptr %9) #9
  call void @llvm.lifetime.start.p0(i64 8, ptr %10) #9
  store ptr null, ptr %10, align 8
  call void @llvm.lifetime.start.p0(i64 8, ptr %11) #9
  store i64 65536, ptr %11, align 8
  call void @llvm.lifetime.start.p0(i64 8, ptr %12) #9
  %16 = getelementptr inbounds [65536 x i8], ptr %9, i64 0, i64 0
  store ptr %16, ptr %12, align 8
  call void @llvm.lifetime.start.p0(i64 8, ptr %13) #9
  store ptr null, ptr %13, align 8
  %17 = call i32 @gettimeofday(ptr noundef %3, ptr noundef null) #9
  br label %18

18:                                               ; preds = %77, %1
  br label %19

19:                                               ; preds = %18
  call void @llvm.lifetime.start.p0(i64 4, ptr %14) #9
  %20 = load i32, ptr %2, align 4
  %21 = load ptr, ptr %12, align 8
  %22 = load i64, ptr %11, align 8
  %23 = call i32 @getgrgid_r(i32 noundef %20, ptr noundef %7, ptr noundef %21, i64 noundef %22, ptr noundef %8)
  store i32 %23, ptr %14, align 4
  %24 = load i32, ptr %14, align 4
  %25 = icmp ne i32 %24, 0
  br i1 %25, label %30, label %26

26:                                               ; preds = %19
  %27 = load ptr, ptr %8, align 8
  %28 = icmp ne ptr %27, null
  br i1 %28, label %29, label %30

29:                                               ; preds = %26
  store i32 3, ptr %15, align 4
  br label %77

30:                                               ; preds = %26, %19
  %31 = load i32, ptr %14, align 4
  %32 = icmp eq i32 %31, 4
  br i1 %32, label %33, label %34

33:                                               ; preds = %30
  store i32 2, ptr %15, align 4
  br label %77, !llvm.loop !16

34:                                               ; preds = %30
  %35 = load i32, ptr %14, align 4
  %36 = icmp eq i32 %35, 34
  br i1 %36, label %37, label %42

37:                                               ; preds = %34
  %38 = load i64, ptr %11, align 8
  %39 = mul i64 %38, 2
  store i64 %39, ptr %11, align 8
  %40 = load i64, ptr %11, align 8
  %41 = call ptr @slurm_xrecalloc(ptr noundef %10, i64 noundef 1, i64 noundef %40, i1 noundef zeroext true, i1 noundef zeroext false, ptr noundef @.str, i32 noundef 432, ptr noundef @__func__.gid_to_string_or_null)
  store ptr %41, ptr %12, align 8
  store i32 2, ptr %15, align 4
  br label %77, !llvm.loop !16

42:                                               ; preds = %34
  %43 = load i32, ptr %14, align 4
  %44 = icmp eq i32 %43, 0
  br i1 %44, label %57, label %45

45:                                               ; preds = %42
  %46 = load i32, ptr %14, align 4
  %47 = icmp eq i32 %46, 2
  br i1 %47, label %57, label %48

48:                                               ; preds = %45
  %49 = load i32, ptr %14, align 4
  %50 = icmp eq i32 %49, 3
  br i1 %50, label %57, label %51

51:                                               ; preds = %48
  %52 = load i32, ptr %14, align 4
  %53 = icmp eq i32 %52, 9
  br i1 %53, label %57, label %54

54:                                               ; preds = %51
  %55 = load i32, ptr %14, align 4
  %56 = icmp eq i32 %55, 1
  br i1 %56, label %57, label %69

57:                                               ; preds = %54, %51, %48, %45, %42
  br label %58

58:                                               ; preds = %57
  br label %59

59:                                               ; preds = %58
  %60 = call i32 @get_log_level()
  %61 = icmp sge i32 %60, 6
  br i1 %61, label %62, label %64

62:                                               ; preds = %59
  %63 = load i32, ptr %2, align 4
  call void (i32, ptr, ...) @log_var(i32 noundef 6, ptr noundef @.str.17, ptr noundef @__func__.gid_to_string_or_null, i32 noundef %63)
  br label %64

64:                                               ; preds = %62, %59
  br label %65

65:                                               ; preds = %64
  br label %66

66:                                               ; preds = %65
  br label %67

67:                                               ; preds = %66
  br label %68

68:                                               ; preds = %67
  br label %74

69:                                               ; preds = %54
  %70 = load i32, ptr %2, align 4
  %71 = load i32, ptr %14, align 4
  %72 = call ptr @slurm_strerror(i32 noundef %71)
  %73 = call i32 (ptr, ...) @error(ptr noundef @.str.18, ptr noundef @__func__.gid_to_string_or_null, i32 noundef %70, ptr noundef %72)
  br label %74

74:                                               ; preds = %69, %68
  br label %75

75:                                               ; preds = %74
  br label %76

76:                                               ; preds = %75
  store ptr null, ptr %8, align 8
  store i32 3, ptr %15, align 4
  br label %77

77:                                               ; preds = %76, %37, %33, %29
  call void @llvm.lifetime.end.p0(i64 4, ptr %14) #9
  %78 = load i32, ptr %15, align 4
  switch i32 %78, label %94 [
    i32 3, label %79
    i32 2, label %18
  ]

79:                                               ; preds = %77
  br label %80

80:                                               ; preds = %79
  %81 = call i32 @gettimeofday(ptr noundef %4, ptr noundef null) #9
  %82 = getelementptr inbounds [20 x i8], ptr %5, i64 0, i64 0
  call void @slurm_diff_tv_str(ptr noundef %3, ptr noundef %4, ptr noundef %82, i32 noundef 20, ptr noundef @.str.16, i64 noundef 0, ptr noundef %6)
  br label %83

83:                                               ; preds = %80
  br label %84

84:                                               ; preds = %83
  %85 = load ptr, ptr %8, align 8
  %86 = icmp ne ptr %85, null
  br i1 %86, label %87, label %92

87:                                               ; preds = %84
  %88 = load ptr, ptr %8, align 8
  %89 = getelementptr inbounds nuw %struct.group, ptr %88, i32 0, i32 0
  %90 = load ptr, ptr %89, align 8
  %91 = call ptr @xstrdup(ptr noundef %90)
  store ptr %91, ptr %13, align 8
  br label %92

92:                                               ; preds = %87, %84
  call void @slurm_xfree(ptr noundef %10)
  %93 = load ptr, ptr %13, align 8
  store i32 1, ptr %15, align 4
  call void @llvm.lifetime.end.p0(i64 8, ptr %13) #9
  call void @llvm.lifetime.end.p0(i64 8, ptr %12) #9
  call void @llvm.lifetime.end.p0(i64 8, ptr %11) #9
  call void @llvm.lifetime.end.p0(i64 8, ptr %10) #9
  call void @llvm.lifetime.end.p0(i64 65536, ptr %9) #9
  call void @llvm.lifetime.end.p0(i64 8, ptr %8) #9
  call void @llvm.lifetime.end.p0(i64 32, ptr %7) #9
  call void @llvm.lifetime.end.p0(i64 8, ptr %6) #9
  call void @llvm.lifetime.end.p0(i64 20, ptr %5) #9
  call void @llvm.lifetime.end.p0(i64 16, ptr %4) #9
  call void @llvm.lifetime.end.p0(i64 16, ptr %3) #9
  ret ptr %93

94:                                               ; preds = %77
  unreachable
}