; Function Attrs: nounwind uwtable
define dso_local ptr @gid_to_string_or_null(i32 noundef %0) local_unnamed_addr #0 {
  %2 = alloca %struct.timeval, align 8
  %3 = alloca %struct.timeval, align 8
  %4 = alloca [20 x i8], align 16
  %5 = alloca i64, align 8
  %6 = alloca %struct.group, align 8
  %7 = alloca ptr, align 8
  %8 = alloca [65536 x i8], align 16
  %9 = alloca ptr, align 8
  call void @llvm.lifetime.start.p0(i64 16, ptr nonnull %2) #10
  call void @llvm.lifetime.start.p0(i64 16, ptr nonnull %3) #10
  call void @llvm.lifetime.start.p0(i64 20, ptr nonnull %4) #10
  call void @llvm.memset.p0.i64(ptr noundef nonnull align 16 dereferenceable(20) %4, i8 0, i64 20, i1 false)
  call void @llvm.lifetime.start.p0(i64 8, ptr nonnull %5) #10
  call void @llvm.lifetime.start.p0(i64 32, ptr nonnull %6) #10
  call void @llvm.lifetime.start.p0(i64 8, ptr nonnull %7) #10
  store ptr null, ptr %7, align 8
  call void @llvm.lifetime.start.p0(i64 65536, ptr nonnull %8) #10
  call void @llvm.lifetime.start.p0(i64 8, ptr nonnull %9) #10
  store ptr null, ptr %9, align 8
  %10 = call i32 @gettimeofday(ptr noundef nonnull %2, ptr noundef null) #10
  %11 = call i32 @getgrgid_r(i32 noundef %0, ptr noundef nonnull %6, ptr noundef nonnull %8, i64 noundef 65536, ptr noundef nonnull %7) #10
  %12 = icmp eq i32 %11, 0
  %13 = load ptr, ptr %7, align 8
  %14 = icmp ne ptr %13, null
  %or.cond39 = select i1 %12, i1 %14, i1 false
  br i1 %or.cond39, label %.loopexit, label %.lr.ph

.lr.ph:                                           ; preds = %1, %27
  %15 = phi i32 [ %28, %27 ], [ %11, %1 ]
  %.02641 = phi i64 [ %.1, %27 ], [ 65536, %1 ]
  %.02840 = phi ptr [ %.129, %27 ], [ %8, %1 ]
  switch i32 %15, label %23 [
    i32 4, label %27
    i32 34, label %16
    i32 9, label %19
    i32 3, label %19
    i32 2, label %19
    i32 1, label %19
    i32 0, label %19
  ]

16:                                               ; preds = %.lr.ph
  %17 = shl i64 %.02641, 1
  %18 = call ptr @slurm_xrecalloc(ptr noundef nonnull %9, i64 noundef 1, i64 noundef %17, i1 noundef zeroext true, i1 noundef zeroext false, ptr noundef nonnull @.str, i32 noundef 432, ptr noundef nonnull @__func__.gid_to_string_or_null) #10
  br label %27, !llvm.loop !16

19:                                               ; preds = %.lr.ph, %.lr.ph, %.lr.ph, %.lr.ph, %.lr.ph
  %20 = call i32 @get_log_level() #10
  %21 = icmp sgt i32 %20, 5
  br i1 %21, label %22, label %26

22:                                               ; preds = %19
  call void (i32, ptr, ...) @log_var(i32 noundef 6, ptr noundef nonnull @.str.17, ptr noundef nonnull @__func__.gid_to_string_or_null, i32 noundef %0) #10
  br label %26

23:                                               ; preds = %.lr.ph
  %24 = call ptr @slurm_strerror(i32 noundef %15) #10
  %25 = call i32 (ptr, ...) @error(ptr noundef nonnull @.str.18, ptr noundef nonnull @__func__.gid_to_string_or_null, i32 noundef %0, ptr noundef %24) #10
  br label %26

26:                                               ; preds = %19, %22, %23
  store ptr null, ptr %7, align 8
  br label %.loopexit

27:                                               ; preds = %.lr.ph, %16
  %.129 = phi ptr [ %18, %16 ], [ %.02840, %.lr.ph ]
  %.1 = phi i64 [ %17, %16 ], [ %.02641, %.lr.ph ]
  %28 = call i32 @getgrgid_r(i32 noundef %0, ptr noundef nonnull %6, ptr noundef %.129, i64 noundef %.1, ptr noundef nonnull %7) #10
  %29 = icmp eq i32 %28, 0
  %30 = load ptr, ptr %7, align 8
  %31 = icmp ne ptr %30, null
  %or.cond = select i1 %29, i1 %31, i1 false
  br i1 %or.cond, label %.loopexit, label %.lr.ph

.loopexit:                                        ; preds = %27, %1, %26
  %32 = call i32 @gettimeofday(ptr noundef nonnull %3, ptr noundef null) #10
  call void @slurm_diff_tv_str(ptr noundef nonnull %2, ptr noundef nonnull %3, ptr noundef nonnull %4, i32 noundef 20, ptr noundef nonnull @.str.16, i64 noundef 0, ptr noundef nonnull %5) #10
  %33 = load ptr, ptr %7, align 8
  %.not = icmp eq ptr %33, null
  br i1 %.not, label %37, label %34

34:                                               ; preds = %.loopexit
  %35 = load ptr, ptr %33, align 8
  %36 = call ptr @xstrdup(ptr noundef %35) #10
  br label %37

37:                                               ; preds = %34, %.loopexit
  %.027 = phi ptr [ %36, %34 ], [ null, %.loopexit ]
  call void @slurm_xfree(ptr noundef nonnull %9) #10
  call void @llvm.lifetime.end.p0(i64 8, ptr nonnull %9) #10
  call void @llvm.lifetime.end.p0(i64 65536, ptr nonnull %8) #10
  call void @llvm.lifetime.end.p0(i64 8, ptr nonnull %7) #10
  call void @llvm.lifetime.end.p0(i64 32, ptr nonnull %6) #10
  call void @llvm.lifetime.end.p0(i64 8, ptr nonnull %5) #10
  call void @llvm.lifetime.end.p0(i64 20, ptr nonnull %4) #10
  call void @llvm.lifetime.end.p0(i64 16, ptr nonnull %3) #10
  call void @llvm.lifetime.end.p0(i64 16, ptr nonnull %2) #10
  ret ptr %.027
}